target datalayout = "e-m:e-p270:32:32-p271:32:32-p272:64:64-i64:64-i128:128-f80:128-n8:16:32:64-S128"
target triple = "x86_64-pc-linux-gnu"

%"class.icu_77::BuilderReorderingBuffer" = type <{ [31 x i32], i32, i32, i8, [3 x i8] }>

; Function Attrs: mustprogress nounwind uwtable
define linkonce_odr dso_local noundef zeroext i8 @_ZNK6icu_7723BuilderReorderingBuffer4ccAtEi(ptr noundef nonnull align 4 dereferenceable(133) %0, i32 noundef %1) #1 comdat align 2 {
  %3 = alloca ptr, align 8
  %4 = alloca i32, align 4
  store ptr %0, ptr %3, align 8, !tbaa !4
  store i32 %1, ptr %4, align 4, !tbaa !9
  %5 = load ptr, ptr %3, align 8
  %6 = getelementptr inbounds nuw %"class.icu_77::BuilderReorderingBuffer", ptr %5, i32 0, i32 0
  %7 = load i32, ptr %4, align 4, !tbaa !9
  %8 = sext i32 %7 to i64
  %9 = getelementptr inbounds [31 x i32], ptr %6, i64 0, i64 %8
  %10 = load i32, ptr %9, align 4, !tbaa !9
  %11 = trunc i32 %10 to i8
  ret i8 %11
}

; Function Attrs: mustprogress uwtable
define dso_local void @_ZN6icu_7723BuilderReorderingBuffer6appendEih(ptr noundef nonnull align 4 dereferenceable(133) %0, i32 noundef %1, i8 noundef zeroext %2) #0 align 2 {
  %4 = alloca ptr, align 8
  %5 = alloca i32, align 4
  %6 = alloca i8, align 1
  %7 = alloca i32, align 4
  %8 = alloca i32, align 4
  store ptr %0, ptr %4, align 8, !tbaa !4
  store i32 %1, ptr %5, align 4, !tbaa !9
  store i8 %2, ptr %6, align 1, !tbaa !11
  %9 = load ptr, ptr %4, align 8
  %10 = load i8, ptr %6, align 1, !tbaa !11
  %11 = zext i8 %10 to i32
  %12 = icmp eq i32 %11, 0
  br i1 %12, label %26, label %13

13:                                               ; preds = %3
  %14 = getelementptr inbounds nuw %"class.icu_77::BuilderReorderingBuffer", ptr %9, i32 0, i32 1
  %15 = load i32, ptr %14, align 4, !tbaa !12
  %16 = icmp eq i32 %15, 0
  br i1 %16, label %26, label %17

17:                                               ; preds = %13
  %18 = getelementptr inbounds nuw %"class.icu_77::BuilderReorderingBuffer", ptr %9, i32 0, i32 1
  %19 = load i32, ptr %18, align 4, !tbaa !12
  %20 = sub nsw i32 %19, 1
  %21 = call noundef zeroext i8 @_ZNK6icu_7723BuilderReorderingBuffer4ccAtEi(ptr noundef nonnull align 4 dereferenceable(133) %9, i32 noundef %20)
  %22 = zext i8 %21 to i32
  %23 = load i8, ptr %6, align 1, !tbaa !11
  %24 = zext i8 %23 to i32
  %25 = icmp sle i32 %22, %24
  br i1 %25, label %26, label %46

26:                                               ; preds = %17, %13, %3
  %27 = load i8, ptr %6, align 1, !tbaa !11
  %28 = zext i8 %27 to i32
  %29 = icmp eq i32 %28, 0
  br i1 %29, label %30, label %34

30:                                               ; preds = %26
  %31 = getelementptr inbounds nuw %"class.icu_77::BuilderReorderingBuffer", ptr %9, i32 0, i32 1
  %32 = load i32, ptr %31, align 4, !tbaa !12
  %33 = getelementptr inbounds nuw %"class.icu_77::BuilderReorderingBuffer", ptr %9, i32 0, i32 2
  store i32 %32, ptr %33, align 4, !tbaa !14
  br label %34

34:                                               ; preds = %30, %26
  %35 = load i32, ptr %5, align 4, !tbaa !9
  %36 = shl i32 %35, 8
  %37 = load i8, ptr %6, align 1, !tbaa !11
  %38 = zext i8 %37 to i32
  %39 = or i32 %36, %38
  %40 = getelementptr inbounds nuw %"class.icu_77::BuilderReorderingBuffer", ptr %9, i32 0, i32 0
  %41 = getelementptr inbounds nuw %"class.icu_77::BuilderReorderingBuffer", ptr %9, i32 0, i32 1
  %42 = load i32, ptr %41, align 4, !tbaa !12
  %43 = add nsw i32 %42, 1
  store i32 %43, ptr %41, align 4, !tbaa !12
  %44 = sext i32 %42 to i64
  %45 = getelementptr inbounds [31 x i32], ptr %40, i64 0, i64 %44
  store i32 %39, ptr %45, align 4, !tbaa !9
  br label %105

46:                                               ; preds = %17
  call void @llvm.lifetime.start.p0(i64 4, ptr %7) #11
  %47 = getelementptr inbounds nuw %"class.icu_77::BuilderReorderingBuffer", ptr %9, i32 0, i32 1
  %48 = load i32, ptr %47, align 4, !tbaa !12
  %49 = sub nsw i32 %48, 1
  store i32 %49, ptr %7, align 4, !tbaa !9
  br label %50

50:                                               ; preds = %64, %46
  %51 = load i32, ptr %7, align 4, !tbaa !9
  %52 = getelementptr inbounds nuw %"class.icu_77::BuilderReorderingBuffer", ptr %9, i32 0, i32 2
  %53 = load i32, ptr %52, align 4, !tbaa !14
  %54 = icmp sgt i32 %51, %53
  br i1 %54, label %55, label %62

55:                                               ; preds = %50
  %56 = load i32, ptr %7, align 4, !tbaa !9
  %57 = call noundef zeroext i8 @_ZNK6icu_7723BuilderReorderingBuffer4ccAtEi(ptr noundef nonnull align 4 dereferenceable(133) %9, i32 noundef %56)
  %58 = zext i8 %57 to i32
  %59 = load i8, ptr %6, align 1, !tbaa !11
  %60 = zext i8 %59 to i32
  %61 = icmp sgt i32 %58, %60
  br label %62

62:                                               ; preds = %55, %50
  %63 = phi i1 [ false, %50 ], [ %61, %55 ]
  br i1 %63, label %64, label %67

64:                                               ; preds = %62
  %65 = load i32, ptr %7, align 4, !tbaa !9
  %66 = add nsw i32 %65, -1
  store i32 %66, ptr %7, align 4, !tbaa !9
  br label %50, !llvm.loop !15

67:                                               ; preds = %62
  %68 = load i32, ptr %7, align 4, !tbaa !9
  %69 = add nsw i32 %68, 1
  store i32 %69, ptr %7, align 4, !tbaa !9
  call void @llvm.lifetime.start.p0(i64 4, ptr %8) #11
  %70 = getelementptr inbounds nuw %"class.icu_77::BuilderReorderingBuffer", ptr %9, i32 0, i32 1
  %71 = load i32, ptr %70, align 4, !tbaa !12
  store i32 %71, ptr %8, align 4, !tbaa !9
  br label %72

72:                                               ; preds = %88, %67
  %73 = load i32, ptr %7, align 4, !tbaa !9
  %74 = load i32, ptr %8, align 4, !tbaa !9
  %75 = icmp slt i32 %73, %74
  br i1 %75, label %77, label %76

76:                                               ; preds = %72
  call void @llvm.lifetime.end.p0(i64 4, ptr %8) #11
  br label %91

77:                                               ; preds = %72
  %78 = getelementptr inbounds nuw %"class.icu_77::BuilderReorderingBuffer", ptr %9, i32 0, i32 0
  %79 = load i32, ptr %8, align 4, !tbaa !9
  %80 = sub nsw i32 %79, 1
  %81 = sext i32 %80 to i64
  %82 = getelementptr inbounds [31 x i32], ptr %78, i64 0, i64 %81
  %83 = load i32, ptr %82, align 4, !tbaa !9
  %84 = getelementptr inbounds nuw %"class.icu_77::BuilderReorderingBuffer", ptr %9, i32 0, i32 0
  %85 = load i32, ptr %8, align 4, !tbaa !9
  %86 = sext i32 %85 to i64
  %87 = getelementptr inbounds [31 x i32], ptr %84, i64 0, i64 %86
  store i32 %83, ptr %87, align 4, !tbaa !9
  br label %88

88:                                               ; preds = %77
  %89 = load i32, ptr %8, align 4, !tbaa !9
  %90 = add nsw i32 %89, -1
  store i32 %90, ptr %8, align 4, !tbaa !9
  br label %72, !llvm.loop !17

91:                                               ; preds = %76
  %92 = load i32, ptr %5, align 4, !tbaa !9
  %93 = shl i32 %92, 8
  %94 = load i8, ptr %6, align 1, !tbaa !11
  %95 = zext i8 %94 to i32
  %96 = or i32 %93, %95
  %97 = getelementptr inbounds nuw %"class.icu_77::BuilderReorderingBuffer", ptr %9, i32 0, i32 0
  %98 = load i32, ptr %7, align 4, !tbaa !9
  %99 = sext i32 %98 to i64
  %100 = getelementptr inbounds [31 x i32], ptr %97, i64 0, i64 %99
  store i32 %96, ptr %100, align 4, !tbaa !9
  %101 = getelementptr inbounds nuw %"class.icu_77::BuilderReorderingBuffer", ptr %9, i32 0, i32 1
  %102 = load i32, ptr %101, align 4, !tbaa !12
  %103 = add nsw i32 %102, 1
  store i32 %103, ptr %101, align 4, !tbaa !12
  %104 = getelementptr inbounds nuw %"class.icu_77::BuilderReorderingBuffer", ptr %9, i32 0, i32 3
  store i8 1, ptr %104, align 4, !tbaa !18
  call void @llvm.lifetime.end.p0(i64 4, ptr %7) #11
  br label %105

105:                                              ; preds = %91, %34
  ret void
}