; Function Attrs: mustprogress nofree norecurse nosync nounwind memory(argmem: readwrite) uwtable
define dso_local void @_ZN6icu_7723BuilderReorderingBuffer6appendEih(ptr noundef nonnull align 4 captures(none) dereferenceable(133) %0, i32 noundef %1, i8 noundef zeroext %2) local_unnamed_addr #0 align 2 {
  %4 = zext i8 %2 to i32
  %5 = icmp eq i8 %2, 0
  %6 = getelementptr inbounds nuw i8, ptr %0, i64 124
  %7 = load i32, ptr %6, align 4, !tbaa !4
  br i1 %5, label %.critedge23, label %8

8:                                                ; preds = %3
  %9 = icmp eq i32 %7, 0
  br i1 %9, label %22, label %10

10:                                               ; preds = %8
  %11 = add i32 %7, -1
  %12 = sext i32 %11 to i64
  %13 = getelementptr inbounds [31 x i32], ptr %0, i64 0, i64 %12
  %14 = load i32, ptr %13, align 4, !tbaa !9
  %15 = trunc i32 %14 to i8
  %.not = icmp ult i8 %2, %15
  br i1 %.not, label %.preheader, label %22

.preheader:                                       ; preds = %10
  %16 = getelementptr inbounds nuw i8, ptr %0, i64 128
  %17 = load i32, ptr %16, align 4, !tbaa !10
  %18 = sext i32 %7 to i64
  %19 = sext i32 %17 to i64
  %smin = tail call i32 @llvm.smin.i32(i32 %17, i32 %11)
  %20 = add i32 %smin, 1
  br label %30

.critedge23:                                      ; preds = %3
  %21 = getelementptr inbounds nuw i8, ptr %0, i64 128
  store i32 %7, ptr %21, align 4, !tbaa !10
  br label %22

22:                                               ; preds = %8, %10, %.critedge23
  %23 = phi i32 [ 0, %8 ], [ %7, %10 ], [ %7, %.critedge23 ]
  %24 = shl i32 %1, 8
  %25 = or disjoint i32 %24, %4
  %26 = getelementptr inbounds nuw i8, ptr %0, i64 124
  %27 = add nsw i32 %23, 1
  store i32 %27, ptr %26, align 4, !tbaa !4
  %28 = sext i32 %23 to i64
  %29 = getelementptr inbounds [31 x i32], ptr %0, i64 0, i64 %28
  store i32 %25, ptr %29, align 4, !tbaa !9
  br label %50

30:                                               ; preds = %.preheader, %32
  %indvars.iv = phi i64 [ %18, %.preheader ], [ %indvars.iv.next, %32 ]
  %indvars.iv.next = add nsw i64 %indvars.iv, -1
  %31 = icmp sgt i64 %indvars.iv.next, %19
  br i1 %31, label %32, label %.critedge

32:                                               ; preds = %30
  %33 = getelementptr inbounds [31 x i32], ptr %0, i64 0, i64 %indvars.iv.next
  %34 = load i32, ptr %33, align 4, !tbaa !9
  %35 = trunc i32 %34 to i8
  %36 = icmp ult i8 %2, %35
  br i1 %36, label %30, label %.critedge.split.loop.exit30, !llvm.loop !11

.critedge.split.loop.exit30:                      ; preds = %32
  %37 = trunc nsw i64 %indvars.iv to i32
  br label %.critedge

.critedge:                                        ; preds = %30, %.critedge.split.loop.exit30
  %.018.in.lcssa = phi i32 [ %37, %.critedge.split.loop.exit30 ], [ %20, %30 ]
  %38 = icmp slt i32 %.018.in.lcssa, %7
  %39 = sext i32 %.018.in.lcssa to i64
  br i1 %38, label %.lr.ph, label %._crit_edge

._crit_edge:                                      ; preds = %.lr.ph, %.critedge
  %40 = shl i32 %1, 8
  %41 = or disjoint i32 %40, %4
  %42 = getelementptr inbounds [31 x i32], ptr %0, i64 0, i64 %39
  store i32 %41, ptr %42, align 4, !tbaa !9
  %43 = load i32, ptr %6, align 4, !tbaa !4
  %44 = add nsw i32 %43, 1
  store i32 %44, ptr %6, align 4, !tbaa !4
  %45 = getelementptr inbounds nuw i8, ptr %0, i64 132
  store i8 1, ptr %45, align 4, !tbaa !13
  br label %50

.lr.ph:                                           ; preds = %.critedge, %.lr.ph
  %indvars.iv27 = phi i64 [ %indvars.iv.next28, %.lr.ph ], [ %18, %.critedge ]
  %indvars.iv.next28 = add nsw i64 %indvars.iv27, -1
  %46 = getelementptr inbounds [31 x i32], ptr %0, i64 0, i64 %indvars.iv.next28
  %47 = load i32, ptr %46, align 4, !tbaa !9
  %48 = getelementptr inbounds [31 x i32], ptr %0, i64 0, i64 %indvars.iv27
  store i32 %47, ptr %48, align 4, !tbaa !9
  %49 = icmp sgt i64 %indvars.iv.next28, %39
  br i1 %49, label %.lr.ph, label %._crit_edge, !llvm.loop !14

50:                                               ; preds = %._crit_edge, %22
  ret void
}